target datalayout = "e-m:e-p270:32:32-p271:32:32-p272:64:64-i64:64-i128:128-f80:128-n8:16:32:64-S128"
target triple = "x86_64-pc-linux-gnu"

@ff_log2_tab = external constant [256 x i8], align 16

; Function Attrs: alwaysinline nounwind willreturn memory(none) uwtable
define internal i32 @ff_log2_c(i32 noundef %0) #5 {
  %2 = alloca i32, align 4
  %3 = alloca i32, align 4
  store i32 %0, ptr %2, align 4, !tbaa !14
  call void @llvm.lifetime.start.p0(i64 4, ptr %3) #6
  store i32 0, ptr %3, align 4, !tbaa !14
  %4 = load i32, ptr %2, align 4, !tbaa !14
  %5 = and i32 %4, -65536
  %6 = icmp ne i32 %5, 0
  br i1 %6, label %7, label %12

7:                                                ; preds = %1
  %8 = load i32, ptr %2, align 4, !tbaa !14
  %9 = lshr i32 %8, 16
  store i32 %9, ptr %2, align 4, !tbaa !14
  %10 = load i32, ptr %3, align 4, !tbaa !14
  %11 = add nsw i32 %10, 16
  store i32 %11, ptr %3, align 4, !tbaa !14
  br label %12

12:                                               ; preds = %7, %1
  %13 = load i32, ptr %2, align 4, !tbaa !14
  %14 = and i32 %13, 65280
  %15 = icmp ne i32 %14, 0
  br i1 %15, label %16, label %21

16:                                               ; preds = %12
  %17 = load i32, ptr %2, align 4, !tbaa !14
  %18 = lshr i32 %17, 8
  store i32 %18, ptr %2, align 4, !tbaa !14
  %19 = load i32, ptr %3, align 4, !tbaa !14
  %20 = add nsw i32 %19, 8
  store i32 %20, ptr %3, align 4, !tbaa !14
  br label %21

21:                                               ; preds = %16, %12
  %22 = load i32, ptr %2, align 4, !tbaa !14
  %23 = zext i32 %22 to i64
  %24 = getelementptr inbounds nuw [256 x i8], ptr @ff_log2_tab, i64 0, i64 %23
  %25 = load i8, ptr %24, align 1, !tbaa !58
  %26 = zext i8 %25 to i32
  %27 = load i32, ptr %3, align 4, !tbaa !14
  %28 = add nsw i32 %27, %26
  store i32 %28, ptr %3, align 4, !tbaa !14
  %29 = load i32, ptr %3, align 4, !tbaa !14
  call void @llvm.lifetime.end.p0(i64 4, ptr %3) #6
  ret i32 %29
}

; Function Attrs: nounwind uwtable
define internal void @ac3_extract_exponents_c(ptr noundef %0, ptr noundef %1, i32 noundef %2) #0 {
  %4 = alloca ptr, align 8
  %5 = alloca ptr, align 8
  %6 = alloca i32, align 4
  %7 = alloca i32, align 4
  %8 = alloca i32, align 4
  store ptr %0, ptr %4, align 8, !tbaa !56
  store ptr %1, ptr %5, align 8, !tbaa !24
  store i32 %2, ptr %6, align 4, !tbaa !14
  call void @llvm.lifetime.start.p0(i64 4, ptr %7) #6
  store i32 0, ptr %7, align 4, !tbaa !14
  br label %9

9:                                                ; preds = %34, %3
  %10 = load i32, ptr %7, align 4, !tbaa !14
  %11 = load i32, ptr %6, align 4, !tbaa !14
  %12 = icmp slt i32 %10, %11
  br i1 %12, label %13, label %37

13:                                               ; preds = %9
  call void @llvm.lifetime.start.p0(i64 4, ptr %8) #6
  %14 = load ptr, ptr %5, align 8, !tbaa !24
  %15 = load i32, ptr %7, align 4, !tbaa !14
  %16 = sext i32 %15 to i64
  %17 = getelementptr inbounds i32, ptr %14, i64 %16
  %18 = load i32, ptr %17, align 4, !tbaa !14
  %19 = call i32 @llvm.abs.i32(i32 %18, i1 true)
  store i32 %19, ptr %8, align 4, !tbaa !14
  %20 = load i32, ptr %8, align 4, !tbaa !14
  %21 = icmp ne i32 %20, 0
  br i1 %21, label %22, label %26

22:                                               ; preds = %13
  %23 = load i32, ptr %8, align 4, !tbaa !14
  %24 = call i32 @ff_log2_c(i32 noundef %23) #7
  %25 = sub nsw i32 23, %24
  br label %27

26:                                               ; preds = %13
  br label %27

27:                                               ; preds = %26, %22
  %28 = phi i32 [ %25, %22 ], [ 24, %26 ]
  %29 = trunc i32 %28 to i8
  %30 = load ptr, ptr %4, align 8, !tbaa !56
  %31 = load i32, ptr %7, align 4, !tbaa !14
  %32 = sext i32 %31 to i64
  %33 = getelementptr inbounds i8, ptr %30, i64 %32
  store i8 %29, ptr %33, align 1, !tbaa !58
  call void @llvm.lifetime.end.p0(i64 4, ptr %8) #6
  br label %34

34:                                               ; preds = %27
  %35 = load i32, ptr %7, align 4, !tbaa !14
  %36 = add nsw i32 %35, 1
  store i32 %36, ptr %7, align 4, !tbaa !14
  br label %9, !llvm.loop !67

37:                                               ; preds = %9
  call void @llvm.lifetime.end.p0(i64 4, ptr %7) #6
  ret void
}