; Function Attrs: nofree norecurse nosync nounwind memory(argmem: readwrite) uwtable
define internal void @ac3_extract_exponents_c(ptr noundef writeonly captures(none) %0, ptr noundef readonly captures(none) %1, i32 noundef %2) #3 {
  %4 = icmp sgt i32 %2, 0
  br i1 %4, label %.lr.ph.preheader, label %._crit_edge

.lr.ph.preheader:                                 ; preds = %3
  %wide.trip.count = zext nneg i32 %2 to i64
  br label %.lr.ph

.lr.ph:                                           ; preds = %.lr.ph.preheader, %15
  %indvars.iv = phi i64 [ 0, %.lr.ph.preheader ], [ %indvars.iv.next, %15 ]
  %5 = getelementptr inbounds nuw i32, ptr %1, i64 %indvars.iv
  %6 = load i32, ptr %5, align 4, !tbaa !18
  %.not = icmp eq i32 %6, 0
  br i1 %.not, label %15, label %7

7:                                                ; preds = %.lr.ph
  %8 = tail call i32 @llvm.abs.i32(i32 %6, i1 true)
  %.not.i = icmp samesign ult i32 %8, 65536
  %9 = lshr i32 %8, 16
  %spec.select.i = select i1 %.not.i, i32 %8, i32 %9
  %spec.select12.i.neg = select i1 %.not.i, i8 0, i8 -16
  %.not11.i = icmp samesign ult i32 %spec.select.i, 256
  %10 = lshr i32 %spec.select.i, 8
  %.neg11 = add nsw i8 %spec.select12.i.neg, -8
  %.110.i = select i1 %.not11.i, i32 %spec.select.i, i32 %10
  %.1.i.neg12 = select i1 %.not11.i, i8 %spec.select12.i.neg, i8 %.neg11
  %11 = zext nneg i32 %.110.i to i64
  %12 = getelementptr inbounds nuw [256 x i8], ptr @ff_log2_tab, i64 0, i64 %11
  %13 = load i8, ptr %12, align 1, !tbaa !45
  %.neg9 = add nsw i8 %.1.i.neg12, 23
  %14 = sub i8 %.neg9, %13
  br label %15

15:                                               ; preds = %.lr.ph, %7
  %16 = phi i8 [ %14, %7 ], [ 24, %.lr.ph ]
  %17 = getelementptr inbounds nuw i8, ptr %0, i64 %indvars.iv
  store i8 %16, ptr %17, align 1, !tbaa !45
  %indvars.iv.next = add nuw nsw i64 %indvars.iv, 1
  %exitcond.not = icmp eq i64 %indvars.iv.next, %wide.trip.count
  br i1 %exitcond.not, label %._crit_edge, label %.lr.ph, !llvm.loop !54

._crit_edge:                                      ; preds = %15, %3
  ret void
}